; ModuleID = 'source-C-CXX/6/1051.c'
source_filename = "source-C-CXX/6/1051.c"
target datalayout = "e-m:e-p270:32:32-p271:32:32-p272:64:64-i64:64-f80:128-n8:16:32:64-S128"
target triple = "x86_64-pc-linux-gnu"

@.str = private unnamed_addr constant [3 x i8] c"%s\00", align 1

; Function Attrs: nofree nounwind sspstrong uwtable
define dso_local i32 @main() local_unnamed_addr #0 {
  %1 = alloca [256 x i8], align 16
  %2 = alloca [256 x i8], align 16
  %3 = alloca [256 x i8], align 16
  %4 = getelementptr inbounds [256 x i8], [256 x i8]* %3, i64 0, i64 0
  %5 = getelementptr inbounds [256 x i8], [256 x i8]* %1, i64 0, i64 0
  call void @llvm.lifetime.start.p0i8(i64 256, i8* nonnull %5) #6
  %6 = getelementptr inbounds [256 x i8], [256 x i8]* %2, i64 0, i64 0
  call void @llvm.lifetime.start.p0i8(i64 256, i8* nonnull %6) #6
  %7 = getelementptr inbounds [256 x i8], [256 x i8]* %3, i64 0, i64 0
  call void @llvm.lifetime.start.p0i8(i64 256, i8* nonnull %7) #6
  %8 = call i32 (i8*, ...) @__isoc99_scanf(i8* getelementptr inbounds ([3 x i8], [3 x i8]* @.str, i64 0, i64 0), i8* nonnull %5)
  %9 = call i32 (i8*, ...) @__isoc99_scanf(i8* getelementptr inbounds ([3 x i8], [3 x i8]* @.str, i64 0, i64 0), i8* nonnull %6)
  %10 = call i32 (i8*, ...) @__isoc99_scanf(i8* getelementptr inbounds ([3 x i8], [3 x i8]* @.str, i64 0, i64 0), i8* nonnull %7)
  %11 = call i64 @strlen(i8* noundef nonnull %5) #7
  %12 = trunc i64 %11 to i32
  %13 = call i64 @strlen(i8* noundef nonnull %6) #7
  %14 = trunc i64 %13 to i32
  %15 = icmp sgt i32 %12, 0
  br i1 %15, label %16, label %43

16:                                               ; preds = %0
  %17 = icmp sgt i32 %14, 0
  br i1 %17, label %18, label %51

18:                                               ; preds = %16
  %19 = and i64 %11, 4294967295
  %20 = and i64 %13, 4294967295
  br label %21

21:                                               ; preds = %18, %35
  %22 = phi i64 [ 0, %18 ], [ %37, %35 ]
  %23 = phi i32 [ 0, %18 ], [ %36, %35 ]
  br label %24

24:                                               ; preds = %21, %39
  %25 = phi i64 [ 0, %21 ], [ %41, %39 ]
  %26 = phi i64 [ %22, %21 ], [ %40, %39 ]
  %27 = getelementptr inbounds [256 x i8], [256 x i8]* %1, i64 0, i64 %26
  %28 = load i8, i8* %27, align 1, !tbaa !5
  %29 = getelementptr inbounds [256 x i8], [256 x i8]* %2, i64 0, i64 %25
  %30 = load i8, i8* %29, align 1, !tbaa !5
  %31 = icmp eq i8 %28, %30
  br i1 %31, label %39, label %32

32:                                               ; preds = %24
  %33 = trunc i64 %25 to i32
  %34 = icmp eq i32 %33, %14
  br i1 %34, label %43, label %35

35:                                               ; preds = %32
  %36 = add nuw nsw i32 %23, 1
  %37 = add nuw nsw i64 %22, 1
  %38 = icmp eq i64 %37, %19
  br i1 %38, label %43, label %21, !llvm.loop !8

39:                                               ; preds = %24
  %40 = add nuw nsw i64 %26, 1
  %41 = add nuw nsw i64 %25, 1
  %42 = icmp eq i64 %41, %20
  br i1 %42, label %43, label %24, !llvm.loop !10

43:                                               ; preds = %35, %32, %39, %0
  %44 = phi i32 [ 0, %0 ], [ %23, %39 ], [ %23, %32 ], [ %12, %35 ]
  %45 = icmp sgt i32 %14, 0
  br i1 %45, label %46, label %50

46:                                               ; preds = %43
  %47 = zext i32 %44 to i64
  %48 = getelementptr [256 x i8], [256 x i8]* %1, i64 0, i64 %47
  %49 = and i64 %13, 4294967295
  call void @llvm.memcpy.p0i8.p0i8.i64(i8* align 1 %48, i8* nonnull align 16 %4, i64 %49, i1 false)
  br label %50

50:                                               ; preds = %46, %43
  br i1 %15, label %51, label %61

51:                                               ; preds = %16, %50
  %52 = and i64 %11, 4294967295
  br label %53

53:                                               ; preds = %51, %53
  %54 = phi i64 [ 0, %51 ], [ %59, %53 ]
  %55 = getelementptr inbounds [256 x i8], [256 x i8]* %1, i64 0, i64 %54
  %56 = load i8, i8* %55, align 1, !tbaa !5
  %57 = sext i8 %56 to i32
  %58 = call i32 @putchar(i32 %57)
  %59 = add nuw nsw i64 %54, 1
  %60 = icmp eq i64 %59, %52
  br i1 %60, label %61, label %53, !llvm.loop !11

61:                                               ; preds = %53, %50
  call void @llvm.lifetime.end.p0i8(i64 256, i8* nonnull %7) #6
  call void @llvm.lifetime.end.p0i8(i64 256, i8* nonnull %6) #6
  call void @llvm.lifetime.end.p0i8(i64 256, i8* nonnull %5) #6
  ret i32 0
}

; Function Attrs: argmemonly mustprogress nofree nosync nounwind willreturn
declare void @llvm.lifetime.start.p0i8(i64 immarg, i8* nocapture) #1

; Function Attrs: nofree nounwind
declare noundef i32 @__isoc99_scanf(i8* nocapture noundef readonly, ...) local_unnamed_addr #2

; Function Attrs: argmemonly mustprogress nofree nounwind readonly willreturn
declare i64 @strlen(i8* nocapture) local_unnamed_addr #3

; Function Attrs: argmemonly mustprogress nofree nosync nounwind willreturn
declare void @llvm.lifetime.end.p0i8(i64 immarg, i8* nocapture) #1

; Function Attrs: nofree nounwind
declare noundef i32 @putchar(i32 noundef) local_unnamed_addr #4

; Function Attrs: argmemonly nofree nounwind willreturn
declare void @llvm.memcpy.p0i8.p0i8.i64(i8* noalias nocapture writeonly, i8* noalias nocapture readonly, i64, i1 immarg) #5


!llvm.module.flags = !{!0, !1, !2, !3}
!llvm.ident = !{!4}

!0 = !{i32 1, !"wchar_size", i32 4}
!1 = !{i32 7, !"PIC Level", i32 2}
!2 = !{i32 7, !"PIE Level", i32 2}
!3 = !{i32 7, !"uwtable", i32 1}
!4 = !{!"clang version 13.0.0"}
!5 = !{!6, !6, i64 0}
!6 = !{!"omnipotent char", !7, i64 0}
!7 = !{!"Simple C/C++ TBAA"}
!8 = distinct !{!8, !9}
!9 = !{!"llvm.loop.mustprogress"}
!10 = distinct !{!10, !9}
!11 = distinct !{!11, !9}
